; Function Attrs: mustprogress uwtable
define internal void @_ZN32pxrInternal_v0_24__pxrReserved__L22_Tf_RegistryFunction14EPNS_7TfDebugEPv(ptr nocapture readnone %0, ptr nocapture readnone %1) #0 {
  tail call void @_ZN32pxrInternal_v0_24__pxrReserved__6TfEnum8_AddNameES0_PKcS2_(ptr nonnull @_ZTIN32pxrInternal_v0_24__pxrReserved__34USDIMAGING_COLLECTIONS__DebugCodesE, i32 2, ptr noundef nonnull @.str.3, ptr noundef null)
  tail call void @_ZN32pxrInternal_v0_24__pxrReserved__7TfDebug24_RegisterDebugSymbolImplEPNS0_5_NodeEPKcS4_(ptr noundef nonnull getelementptr inbounds (i8, ptr @_ZN32pxrInternal_v0_24__pxrReserved__7TfDebug5_DataINS_34USDIMAGING_COLLECTIONS__DebugCodesEE5nodesE, i64 8), ptr noundef nonnull @.str.3, ptr noundef nonnull @.str.4)
  tail call void @_ZN32pxrInternal_v0_24__pxrReserved__6TfEnum8_AddNameES0_PKcS2_(ptr nonnull @_ZTIN32pxrInternal_v0_24__pxrReserved__34USDIMAGING_COLLECTIONS__DebugCodesE, i32 0, ptr noundef nonnull @.str.5, ptr noundef null)
  tail call void @_ZN32pxrInternal_v0_24__pxrReserved__7TfDebug24_RegisterDebugSymbolImplEPNS0_5_NodeEPKcS4_(ptr noundef nonnull @_ZN32pxrInternal_v0_24__pxrReserved__7TfDebug5_DataINS_34USDIMAGING_COLLECTIONS__DebugCodesEE5nodesE, ptr noundef nonnull @.str.5, ptr noundef nonnull @.str.6)
  tail call void @_ZN32pxrInternal_v0_24__pxrReserved__6TfEnum8_AddNameES0_PKcS2_(ptr nonnull @_ZTIN32pxrInternal_v0_24__pxrReserved__34USDIMAGING_COLLECTIONS__DebugCodesE, i32 3, ptr noundef nonnull @.str.7, ptr noundef null)
  tail call void @_ZN32pxrInternal_v0_24__pxrReserved__7TfDebug24_RegisterDebugSymbolImplEPNS0_5_NodeEPKcS4_(ptr noundef nonnull getelementptr inbounds (i8, ptr @_ZN32pxrInternal_v0_24__pxrReserved__7TfDebug5_DataINS_34USDIMAGING_COLLECTIONS__DebugCodesEE5nodesE, i64 12), ptr noundef nonnull @.str.7, ptr noundef nonnull @.str.8)
  tail call void @_ZN32pxrInternal_v0_24__pxrReserved__6TfEnum8_AddNameES0_PKcS2_(ptr nonnull @_ZTIN32pxrInternal_v0_24__pxrReserved__34USDIMAGING_COLLECTIONS__DebugCodesE, i32 1, ptr noundef nonnull @.str.9, ptr noundef null)
  tail call void @_ZN32pxrInternal_v0_24__pxrReserved__7TfDebug24_RegisterDebugSymbolImplEPNS0_5_NodeEPKcS4_(ptr noundef nonnull getelementptr inbounds (i8, ptr @_ZN32pxrInternal_v0_24__pxrReserved__7TfDebug5_DataINS_34USDIMAGING_COLLECTIONS__DebugCodesEE5nodesE, i64 4), ptr noundef nonnull @.str.9, ptr noundef nonnull @.str.10)
  tail call void @_ZN32pxrInternal_v0_24__pxrReserved__6TfEnum8_AddNameES0_PKcS2_(ptr nonnull @_ZTIN32pxrInternal_v0_24__pxrReserved__34USDIMAGING_COLLECTIONS__DebugCodesE, i32 4, ptr noundef nonnull @.str.11, ptr noundef null)
  tail call void @_ZN32pxrInternal_v0_24__pxrReserved__7TfDebug24_RegisterDebugSymbolImplEPNS0_5_NodeEPKcS4_(ptr noundef nonnull getelementptr inbounds (i8, ptr @_ZN32pxrInternal_v0_24__pxrReserved__7TfDebug5_DataINS_34USDIMAGING_COLLECTIONS__DebugCodesEE5nodesE, i64 16), ptr noundef nonnull @.str.11, ptr noundef nonnull @.str.12)
  tail call void @_ZN32pxrInternal_v0_24__pxrReserved__6TfEnum8_AddNameES0_PKcS2_(ptr nonnull @_ZTIN32pxrInternal_v0_24__pxrReserved__34USDIMAGING_COLLECTIONS__DebugCodesE, i32 5, ptr noundef nonnull @.str.13, ptr noundef null)
  tail call void @_ZN32pxrInternal_v0_24__pxrReserved__7TfDebug24_RegisterDebugSymbolImplEPNS0_5_NodeEPKcS4_(ptr noundef nonnull getelementptr inbounds (i8, ptr @_ZN32pxrInternal_v0_24__pxrReserved__7TfDebug5_DataINS_34USDIMAGING_COLLECTIONS__DebugCodesEE5nodesE, i64 20), ptr noundef nonnull @.str.13, ptr noundef nonnull @.str.14)
  tail call void @_ZN32pxrInternal_v0_24__pxrReserved__6TfEnum8_AddNameES0_PKcS2_(ptr nonnull @_ZTIN32pxrInternal_v0_24__pxrReserved__34USDIMAGING_COLLECTIONS__DebugCodesE, i32 6, ptr noundef nonnull @.str.15, ptr noundef null)
  tail call void @_ZN32pxrInternal_v0_24__pxrReserved__7TfDebug24_RegisterDebugSymbolImplEPNS0_5_NodeEPKcS4_(ptr noundef nonnull getelementptr inbounds (i8, ptr @_ZN32pxrInternal_v0_24__pxrReserved__7TfDebug5_DataINS_34USDIMAGING_COLLECTIONS__DebugCodesEE5nodesE, i64 24), ptr noundef nonnull @.str.15, ptr noundef nonnull @.str.16)
  tail call void @_ZN32pxrInternal_v0_24__pxrReserved__6TfEnum8_AddNameES0_PKcS2_(ptr nonnull @_ZTIN32pxrInternal_v0_24__pxrReserved__34USDIMAGING_COLLECTIONS__DebugCodesE, i32 7, ptr noundef nonnull @.str.17, ptr noundef null)
  tail call void @_ZN32pxrInternal_v0_24__pxrReserved__7TfDebug24_RegisterDebugSymbolImplEPNS0_5_NodeEPKcS4_(ptr noundef nonnull getelementptr inbounds (i8, ptr @_ZN32pxrInternal_v0_24__pxrReserved__7TfDebug5_DataINS_34USDIMAGING_COLLECTIONS__DebugCodesEE5nodesE, i64 28), ptr noundef nonnull @.str.17, ptr noundef nonnull @.str.18)
  tail call void @_ZN32pxrInternal_v0_24__pxrReserved__6TfEnum8_AddNameES0_PKcS2_(ptr nonnull @_ZTIN32pxrInternal_v0_24__pxrReserved__34USDIMAGING_COLLECTIONS__DebugCodesE, i32 8, ptr noundef nonnull @.str.19, ptr noundef null)
  tail call void @_ZN32pxrInternal_v0_24__pxrReserved__7TfDebug24_RegisterDebugSymbolImplEPNS0_5_NodeEPKcS4_(ptr noundef nonnull getelementptr inbounds (i8, ptr @_ZN32pxrInternal_v0_24__pxrReserved__7TfDebug5_DataINS_34USDIMAGING_COLLECTIONS__DebugCodesEE5nodesE, i64 32), ptr noundef nonnull @.str.19, ptr noundef nonnull @.str.20)
  tail call void @_ZN32pxrInternal_v0_24__pxrReserved__6TfEnum8_AddNameES0_PKcS2_(ptr nonnull @_ZTIN32pxrInternal_v0_24__pxrReserved__34USDIMAGING_COLLECTIONS__DebugCodesE, i32 9, ptr noundef nonnull @.str.21, ptr noundef null)
  tail call void @_ZN32pxrInternal_v0_24__pxrReserved__7TfDebug24_RegisterDebugSymbolImplEPNS0_5_NodeEPKcS4_(ptr noundef nonnull getelementptr inbounds (i8, ptr @_ZN32pxrInternal_v0_24__pxrReserved__7TfDebug5_DataINS_34USDIMAGING_COLLECTIONS__DebugCodesEE5nodesE, i64 36), ptr noundef nonnull @.str.21, ptr noundef nonnull @.str.22)
  tail call void @_ZN32pxrInternal_v0_24__pxrReserved__6TfEnum8_AddNameES0_PKcS2_(ptr nonnull @_ZTIN32pxrInternal_v0_24__pxrReserved__34USDIMAGING_COLLECTIONS__DebugCodesE, i32 10, ptr noundef nonnull @.str.23, ptr noundef null)
  tail call void @_ZN32pxrInternal_v0_24__pxrReserved__7TfDebug24_RegisterDebugSymbolImplEPNS0_5_NodeEPKcS4_(ptr noundef nonnull getelementptr inbounds (i8, ptr @_ZN32pxrInternal_v0_24__pxrReserved__7TfDebug5_DataINS_34USDIMAGING_COLLECTIONS__DebugCodesEE5nodesE, i64 40), ptr noundef nonnull @.str.23, ptr noundef nonnull @.str.24)
  tail call void @_ZN32pxrInternal_v0_24__pxrReserved__6TfEnum8_AddNameES0_PKcS2_(ptr nonnull @_ZTIN32pxrInternal_v0_24__pxrReserved__34USDIMAGING_COLLECTIONS__DebugCodesE, i32 11, ptr noundef nonnull @.str.25, ptr noundef null)
  tail call void @_ZN32pxrInternal_v0_24__pxrReserved__7TfDebug24_RegisterDebugSymbolImplEPNS0_5_NodeEPKcS4_(ptr noundef nonnull getelementptr inbounds (i8, ptr @_ZN32pxrInternal_v0_24__pxrReserved__7TfDebug5_DataINS_34USDIMAGING_COLLECTIONS__DebugCodesEE5nodesE, i64 44), ptr noundef nonnull @.str.25, ptr noundef nonnull @.str.26)
  ret void
}